target datalayout = "e-m:e-p270:32:32-p271:32:32-p272:64:64-i64:64-i128:128-f80:128-n8:16:32:64-S128"
target triple = "x86_64-pc-linux-gnu"

%struct._zend_compiler_globals = type { %struct._zend_stack, ptr, ptr, i32, ptr, ptr, ptr, ptr, i8, i8, i8, i8, i8, %struct._zend_llist, ptr, i8, i8, i8, i8, ptr, i32, i32, %struct._zend_oparray_context, %struct._zend_file_context, ptr, %struct._zend_array, ptr, i64, i8, i8, i8, ptr, ptr, %struct._zend_stack, ptr, i32, ptr, ptr, i64, i64, ptr, ptr, ptr, ptr, i32, %struct._zend_stack }
%struct._zend_llist = type { ptr, ptr, i64, i64, ptr, i8, ptr }
%struct._zend_oparray_context = type { i32, i32, i32, i32, i32, i32, i32, ptr, ptr, i8 }
%struct._zend_file_context = type { %struct._zend_declarables, ptr, i8, i8, ptr, ptr, ptr, %struct._zend_array }
%struct._zend_declarables = type { i64 }
%struct._zend_array = type { %struct._zend_refcounted_h, %union.anon.5, i32, %union.anon.7, i32, i32, i32, i32, i64, ptr }
%struct._zend_refcounted_h = type { i32, %union.anon.3 }
%union.anon.3 = type { i32 }
%union.anon.5 = type { i32 }
%union.anon.7 = type { ptr }
%struct._zend_stack = type { i32, i32, i32, ptr }
%struct.zend_type = type { ptr, i32 }
%struct._zend_executor_globals = type { %struct._zval_struct, %struct._zval_struct, [32 x ptr], ptr, ptr, %struct._zend_array, %struct._zend_array, ptr, i32, i32, ptr, ptr, ptr, ptr, ptr, ptr, i64, ptr, ptr, i32, i32, i64, i32, i32, i32, i8, i8, %struct.zend_atomic_bool_s, %struct.zend_atomic_bool_s, ptr, i64, ptr, ptr, %struct._zend_array, %struct._zend_array, i32, i8, %struct._zval_struct, %struct._zval_struct, %struct._zend_stack, %struct._zend_stack, %struct._zend_stack, ptr, i32, i32, i64, ptr, ptr, ptr, %struct._zend_objects_store, ptr, ptr, ptr, [3 x %struct._zend_op], ptr, i8, i8, i64, i32, i32, ptr, [16 x %struct._HashTableIterator], ptr, %union._zend_function, %struct._zend_op, %struct._zend_array, i64, %struct.zend_get_gc_buffer, ptr, ptr, ptr, i64, i8, i32, ptr, ptr, i64, %struct._zend_call_stack, i64, i64, [6 x ptr] }
%struct.zend_atomic_bool_s = type { i8 }
%struct._zval_struct = type { %union._zend_value, %union.anon, %union.anon.2 }
%union._zend_value = type { i64 }
%union.anon = type { i32 }
%union.anon.2 = type { i32 }
%struct._zend_objects_store = type { ptr, i32, i32, i32 }
%struct._HashTableIterator = type { ptr, i32, i32 }
%union._zend_function = type { %struct._zend_op_array }
%struct._zend_op_array = type { i8, [3 x i8], i32, ptr, ptr, ptr, i32, i32, ptr, ptr, ptr, ptr, i32, i32, i32, i32, ptr, ptr, ptr, ptr, ptr, i32, i32, ptr, ptr, ptr, i32, i32, i32, i32, ptr, ptr, [6 x ptr] }
%struct._zend_op = type { ptr, %union._znode_op, %union._znode_op, %union._znode_op, i32, i32, i8, i8, i8, i8 }
%union._znode_op = type { i32 }
%struct.zend_get_gc_buffer = type { ptr, ptr, ptr }
%struct._zend_call_stack = type { ptr, i64 }
%struct._zend_class_entry = type { i8, ptr, %union.anon.4, i32, i32, i32, i32, ptr, ptr, ptr, %struct._zend_array, %struct._zend_array, %struct._zend_array, ptr, ptr, ptr, ptr, ptr, ptr, ptr, ptr, ptr, ptr, ptr, ptr, ptr, ptr, ptr, ptr, ptr, ptr, ptr, %union.anon.8, ptr, ptr, ptr, ptr, i32, i32, %union.anon.9, ptr, ptr, ptr, ptr, i32, ptr, ptr, %union.anon.10 }
%union.anon.4 = type { ptr }
%union.anon.8 = type { ptr }
%union.anon.9 = type { ptr }
%union.anon.10 = type { %struct.anon.11 }
%struct.anon.11 = type { ptr, i32, i32 }
%struct._Bucket = type { %struct._zval_struct, i64, ptr }
%struct._zend_class_mutable_data = type { ptr, ptr, i32, ptr }
%struct._zend_class_constant = type { %struct._zval_struct, ptr, ptr, ptr, %struct.zend_type }
%struct.anon.0 = type { i8, i8, %union.anon.1 }
%union.anon.1 = type { i16 }
%struct._zend_execute_data = type { ptr, ptr, ptr, ptr, %struct._zval_struct, ptr, ptr, ptr, ptr }
%struct.anon.13 = type { i8, [3 x i8], i32, ptr, ptr, ptr, i32, i32, ptr, ptr, ptr, ptr, i32 }

@compiler_globals = external global %struct._zend_compiler_globals, align 8
@executor_globals = external global %struct._zend_executor_globals, align 8

; Function Attrs: nounwind uwtable
define internal void @zend_enum_cases_func(ptr noundef %0, ptr noundef %1) #0 {
  %3 = alloca ptr, align 8
  %4 = alloca ptr, align 8
  %5 = alloca ptr, align 8
  %6 = alloca ptr, align 8
  %7 = alloca ptr, align 8
  %8 = alloca ptr, align 8
  %9 = alloca ptr, align 8
  %10 = alloca ptr, align 8
  %11 = alloca ptr, align 8
  %12 = alloca ptr, align 8
  %13 = alloca ptr, align 8
  %14 = alloca ptr, align 8
  %15 = alloca ptr, align 8
  %16 = alloca ptr, align 8
  %17 = alloca ptr, align 8
  %18 = alloca ptr, align 8
  %19 = alloca ptr, align 8
  %20 = alloca ptr, align 8
  store ptr %0, ptr %10, align 8
  store ptr %1, ptr %11, align 8
  %21 = load ptr, ptr %10, align 8
  %22 = getelementptr inbounds %struct._zend_execute_data, ptr %21, i32 0, i32 3
  %23 = load ptr, ptr %22, align 8
  %24 = getelementptr inbounds %struct.anon.13, ptr %23, i32 0, i32 4
  %25 = load ptr, ptr %24, align 8
  store ptr %25, ptr %12, align 8
  br label %26

26:                                               ; preds = %2
  %27 = load ptr, ptr %10, align 8
  %28 = getelementptr inbounds %struct._zend_execute_data, ptr %27, i32 0, i32 4
  %29 = getelementptr inbounds %struct._zval_struct, ptr %28, i32 0, i32 2
  %30 = load i32, ptr %29, align 4
  %31 = icmp ne i32 %30, 0
  %32 = xor i1 %31, true
  %33 = xor i1 %32, true
  %34 = zext i1 %33 to i32
  %35 = sext i32 %34 to i64
  %36 = icmp ne i64 %35, 0
  br i1 %36, label %37, label %38

37:                                               ; preds = %26
  call void @zend_wrong_parameters_none_error()
  br label %180

38:                                               ; preds = %26
  br label %39

39:                                               ; preds = %38
  br label %40

40:                                               ; preds = %39
  %41 = call ptr @_zend_new_array_0()
  store ptr %41, ptr %14, align 8
  %42 = load ptr, ptr %11, align 8
  store ptr %42, ptr %15, align 8
  %43 = load ptr, ptr %14, align 8
  %44 = load ptr, ptr %15, align 8
  %45 = getelementptr inbounds %struct._zval_struct, ptr %44, i32 0, i32 0
  store ptr %43, ptr %45, align 8
  %46 = load ptr, ptr %15, align 8
  %47 = getelementptr inbounds %struct._zval_struct, ptr %46, i32 0, i32 1
  store i32 775, ptr %47, align 8
  br label %48

48:                                               ; preds = %40
  br label %49

49:                                               ; preds = %48
  %50 = load ptr, ptr %12, align 8
  store ptr %50, ptr %8, align 8
  %51 = load ptr, ptr %8, align 8
  %52 = getelementptr inbounds %struct._zend_class_entry, ptr %51, i32 0, i32 4
  %53 = load i32, ptr %52, align 4
  %54 = and i32 %53, 16777216
  %55 = icmp ne i32 %54, 0
  br i1 %55, label %56, label %83

56:                                               ; preds = %49
  %57 = load ptr, ptr %8, align 8
  %58 = getelementptr inbounds %struct._zend_class_entry, ptr %57, i32 0, i32 13
  %59 = load ptr, ptr %58, align 8
  %60 = icmp ne ptr %59, null
  br i1 %60, label %61, label %83

61:                                               ; preds = %56
  %62 = load ptr, ptr getelementptr inbounds (%struct._zend_compiler_globals, ptr @compiler_globals, i32 0, i32 37), align 8
  %63 = load ptr, ptr %8, align 8
  %64 = getelementptr inbounds %struct._zend_class_entry, ptr %63, i32 0, i32 13
  %65 = load ptr, ptr %64, align 8
  %66 = ptrtoint ptr %65 to i64
  %67 = getelementptr inbounds i8, ptr %62, i64 %66
  %68 = load ptr, ptr %67, align 8
  store ptr %68, ptr %9, align 8
  %69 = load ptr, ptr %9, align 8
  %70 = icmp ne ptr %69, null
  br i1 %70, label %71, label %80

71:                                               ; preds = %61
  %72 = load ptr, ptr %9, align 8
  %73 = getelementptr inbounds %struct._zend_class_mutable_data, ptr %72, i32 0, i32 1
  %74 = load ptr, ptr %73, align 8
  %75 = icmp ne ptr %74, null
  br i1 %75, label %76, label %80

76:                                               ; preds = %71
  %77 = load ptr, ptr %9, align 8
  %78 = getelementptr inbounds %struct._zend_class_mutable_data, ptr %77, i32 0, i32 1
  %79 = load ptr, ptr %78, align 8
  store ptr %79, ptr %7, align 8
  br label %86

80:                                               ; preds = %71, %61
  %81 = load ptr, ptr %8, align 8
  %82 = call ptr @zend_separate_class_constants_table(ptr noundef %81) #11
  store ptr %82, ptr %7, align 8
  br label %86

83:                                               ; preds = %56, %49
  %84 = load ptr, ptr %8, align 8
  %85 = getelementptr inbounds %struct._zend_class_entry, ptr %84, i32 0, i32 12
  store ptr %85, ptr %7, align 8
  br label %86

86:                                               ; preds = %83, %80, %76
  %87 = load ptr, ptr %7, align 8
  store ptr %87, ptr %16, align 8
  %88 = load ptr, ptr %16, align 8
  %89 = getelementptr inbounds %struct._zend_array, ptr %88, i32 0, i32 3
  %90 = load ptr, ptr %89, align 8
  %91 = getelementptr inbounds %struct._Bucket, ptr %90, i64 0
  store ptr %91, ptr %17, align 8
  %92 = load ptr, ptr %16, align 8
  %93 = getelementptr inbounds %struct._zend_array, ptr %92, i32 0, i32 3
  %94 = load ptr, ptr %93, align 8
  %95 = load ptr, ptr %16, align 8
  %96 = getelementptr inbounds %struct._zend_array, ptr %95, i32 0, i32 4
  %97 = load i32, ptr %96, align 8
  %98 = zext i32 %97 to i64
  %99 = getelementptr inbounds %struct._Bucket, ptr %94, i64 %98
  store ptr %99, ptr %18, align 8
  %100 = load ptr, ptr %16, align 8
  %101 = getelementptr inbounds %struct._zend_array, ptr %100, i32 0, i32 1
  %102 = load i32, ptr %101, align 8
  %103 = and i32 %102, 4
  %104 = icmp ne i32 %103, 0
  %105 = xor i1 %104, true
  call void @llvm.assume(i1 %105)
  br label %106

106:                                              ; preds = %176, %86
  %107 = load ptr, ptr %17, align 8
  %108 = load ptr, ptr %18, align 8
  %109 = icmp ne ptr %107, %108
  br i1 %109, label %110, label %179

110:                                              ; preds = %106
  %111 = load ptr, ptr %17, align 8
  %112 = getelementptr inbounds %struct._Bucket, ptr %111, i32 0, i32 0
  store ptr %112, ptr %19, align 8
  %113 = load ptr, ptr %19, align 8
  store ptr %113, ptr %5, align 8
  %114 = load ptr, ptr %5, align 8
  %115 = getelementptr inbounds %struct._zval_struct, ptr %114, i32 0, i32 1
  %116 = load i8, ptr %115, align 8
  %117 = zext i8 %116 to i32
  %118 = icmp eq i32 %117, 0
  %119 = xor i1 %118, true
  %120 = xor i1 %119, true
  %121 = zext i1 %120 to i32
  %122 = sext i32 %121 to i64
  %123 = icmp ne i64 %122, 0
  br i1 %123, label %124, label %125

124:                                              ; preds = %110
  br label %176

125:                                              ; preds = %110
  %126 = load ptr, ptr %19, align 8
  %127 = getelementptr inbounds %struct._zval_struct, ptr %126, i32 0, i32 0
  %128 = load ptr, ptr %127, align 8
  store ptr %128, ptr %13, align 8
  %129 = load ptr, ptr %13, align 8
  %130 = getelementptr inbounds %struct._zend_class_constant, ptr %129, i32 0, i32 0
  %131 = getelementptr inbounds %struct._zval_struct, ptr %130, i32 0, i32 2
  %132 = load i32, ptr %131, align 4
  %133 = and i32 %132, 64
  %134 = icmp ne i32 %133, 0
  br i1 %134, label %136, label %135

135:                                              ; preds = %125
  br label %176

136:                                              ; preds = %125
  %137 = load ptr, ptr %13, align 8
  %138 = getelementptr inbounds %struct._zend_class_constant, ptr %137, i32 0, i32 0
  store ptr %138, ptr %20, align 8
  %139 = load ptr, ptr %20, align 8
  store ptr %139, ptr %6, align 8
  %140 = load ptr, ptr %6, align 8
  %141 = getelementptr inbounds %struct._zval_struct, ptr %140, i32 0, i32 1
  %142 = load i8, ptr %141, align 8
  %143 = zext i8 %142 to i32
  %144 = icmp eq i32 %143, 11
  br i1 %144, label %145, label %158

145:                                              ; preds = %136
  %146 = load ptr, ptr %20, align 8
  %147 = load ptr, ptr %13, align 8
  %148 = getelementptr inbounds %struct._zend_class_constant, ptr %147, i32 0, i32 3
  %149 = load ptr, ptr %148, align 8
  %150 = call i32 @zval_update_constant_ex(ptr noundef %146, ptr noundef %149)
  %151 = icmp eq i32 %150, -1
  br i1 %151, label %152, label %157

152:                                              ; preds = %145
  br label %153

153:                                              ; preds = %152
  %154 = load ptr, ptr getelementptr inbounds (%struct._zend_executor_globals, ptr @executor_globals, i32 0, i32 50), align 8
  %155 = icmp ne ptr %154, null
  call void @llvm.assume(i1 %155)
  br label %180

156:                                              ; No predecessors!
  br label %157

157:                                              ; preds = %156, %145
  br label %158

158:                                              ; preds = %157, %136
  %159 = load ptr, ptr %20, align 8
  store ptr %159, ptr %4, align 8
  %160 = load ptr, ptr %4, align 8
  %161 = getelementptr inbounds %struct._zval_struct, ptr %160, i32 0, i32 1
  %162 = getelementptr inbounds %struct.anon.0, ptr %161, i32 0, i32 1
  %163 = load i8, ptr %162, align 1
  %164 = zext i8 %163 to i32
  %165 = icmp ne i32 %164, 0
  call void @llvm.assume(i1 %165)
  %166 = load ptr, ptr %4, align 8
  %167 = load ptr, ptr %166, align 8
  store ptr %167, ptr %3, align 8
  %168 = load ptr, ptr %3, align 8
  %169 = load i32, ptr %168, align 4
  %170 = add i32 %169, 1
  store i32 %170, ptr %168, align 4
  %171 = load ptr, ptr %11, align 8
  %172 = getelementptr inbounds %struct._zval_struct, ptr %171, i32 0, i32 0
  %173 = load ptr, ptr %172, align 8
  %174 = load ptr, ptr %20, align 8
  %175 = call ptr @zend_hash_next_index_insert_new(ptr noundef %173, ptr noundef %174)
  br label %176

176:                                              ; preds = %158, %135, %124
  %177 = load ptr, ptr %17, align 8
  %178 = getelementptr inbounds %struct._Bucket, ptr %177, i32 1
  store ptr %178, ptr %17, align 8
  br label %106

179:                                              ; preds = %106
  br label %180

180:                                              ; preds = %179, %153, %37
  ret void
}