; Function Attrs: nounwind uwtable
define internal void @zend_enum_cases_func(ptr nocapture noundef readonly %0, ptr nocapture noundef %1) #0 {
  %3 = getelementptr inbounds i8, ptr %0, i64 24
  %4 = load ptr, ptr %3, align 8
  %5 = getelementptr inbounds i8, ptr %4, i64 16
  %6 = load ptr, ptr %5, align 8
  %7 = getelementptr inbounds i8, ptr %0, i64 44
  %8 = load i32, ptr %7, align 4
  %.not = icmp eq i32 %8, 0
  br i1 %.not, label %10, label %9

9:                                                ; preds = %2
  tail call void @zend_wrong_parameters_none_error() #12
  br label %.loopexit

10:                                               ; preds = %2
  %11 = tail call ptr @_zend_new_array_0() #12
  store ptr %11, ptr %1, align 8
  %12 = getelementptr inbounds i8, ptr %1, i64 8
  store i32 775, ptr %12, align 8
  %13 = getelementptr inbounds i8, ptr %6, i64 28
  %14 = load i32, ptr %13, align 4
  %15 = and i32 %14, 16777216
  %.not43 = icmp eq i32 %15, 0
  br i1 %.not43, label %29, label %16

16:                                               ; preds = %10
  %17 = getelementptr inbounds i8, ptr %6, i64 232
  %18 = load ptr, ptr %17, align 8
  %.not44 = icmp eq ptr %18, null
  br i1 %.not44, label %29, label %19

19:                                               ; preds = %16
  %20 = load ptr, ptr getelementptr inbounds (%struct._zend_compiler_globals, ptr @compiler_globals, i64 0, i32 37), align 8
  %21 = ptrtoint ptr %18 to i64
  %22 = getelementptr inbounds i8, ptr %20, i64 %21
  %23 = load ptr, ptr %22, align 8
  %.not45 = icmp eq ptr %23, null
  br i1 %.not45, label %27, label %24

24:                                               ; preds = %19
  %25 = getelementptr inbounds i8, ptr %23, i64 8
  %26 = load ptr, ptr %25, align 8
  %.not46 = icmp eq ptr %26, null
  br i1 %.not46, label %27, label %31

27:                                               ; preds = %24, %19
  %28 = tail call ptr @zend_separate_class_constants_table(ptr noundef nonnull %6) #12
  br label %31

29:                                               ; preds = %16, %10
  %30 = getelementptr inbounds i8, ptr %6, i64 176
  br label %31

31:                                               ; preds = %24, %29, %27
  %.0 = phi ptr [ %28, %27 ], [ %30, %29 ], [ %26, %24 ]
  %32 = getelementptr inbounds i8, ptr %.0, i64 16
  %33 = load ptr, ptr %32, align 8
  %34 = getelementptr inbounds i8, ptr %.0, i64 24
  %35 = load i32, ptr %34, align 8
  %36 = zext i32 %35 to i64
  %37 = getelementptr inbounds %struct._Bucket, ptr %33, i64 %36
  %38 = getelementptr inbounds i8, ptr %.0, i64 8
  %39 = load i32, ptr %38, align 8
  %40 = and i32 %39, 4
  %.not47 = icmp eq i32 %40, 0
  tail call void @llvm.assume(i1 %.not47)
  %.not4850 = icmp eq i32 %35, 0
  br i1 %.not4850, label %.loopexit, label %.lr.ph

.lr.ph:                                           ; preds = %31, %70
  %.03951 = phi ptr [ %71, %70 ], [ %33, %31 ]
  %41 = getelementptr inbounds i8, ptr %.03951, i64 8
  %42 = load i8, ptr %41, align 8
  %43 = icmp eq i8 %42, 0
  br i1 %43, label %70, label %44

44:                                               ; preds = %.lr.ph
  %45 = load ptr, ptr %.03951, align 8
  %46 = getelementptr inbounds i8, ptr %45, i64 12
  %47 = load i32, ptr %46, align 4
  %48 = and i32 %47, 64
  %.not49 = icmp eq i32 %48, 0
  br i1 %.not49, label %70, label %49

49:                                               ; preds = %44
  %50 = getelementptr inbounds i8, ptr %45, i64 8
  %51 = load i8, ptr %50, align 8
  %52 = icmp eq i8 %51, 11
  br i1 %52, label %53, label %61

53:                                               ; preds = %49
  %54 = getelementptr inbounds i8, ptr %45, i64 32
  %55 = load ptr, ptr %54, align 8
  %56 = tail call i32 @zval_update_constant_ex(ptr noundef nonnull %45, ptr noundef %55) #12
  %57 = icmp eq i32 %56, -1
  br i1 %57, label %58, label %61

58:                                               ; preds = %53
  %59 = load ptr, ptr getelementptr inbounds (%struct._zend_executor_globals, ptr @executor_globals, i64 0, i32 50), align 8
  %60 = icmp ne ptr %59, null
  tail call void @llvm.assume(i1 %60)
  br label %.loopexit

61:                                               ; preds = %53, %49
  %62 = getelementptr inbounds i8, ptr %45, i64 9
  %63 = load i8, ptr %62, align 1
  %64 = icmp ne i8 %63, 0
  tail call void @llvm.assume(i1 %64)
  %65 = load ptr, ptr %45, align 8
  %66 = load i32, ptr %65, align 4
  %67 = add i32 %66, 1
  store i32 %67, ptr %65, align 4
  %68 = load ptr, ptr %1, align 8
  %69 = tail call ptr @zend_hash_next_index_insert_new(ptr noundef %68, ptr noundef nonnull %45) #12
  br label %70

70:                                               ; preds = %44, %.lr.ph, %61
  %71 = getelementptr inbounds i8, ptr %.03951, i64 32
  %.not48 = icmp eq ptr %71, %37
  br i1 %.not48, label %.loopexit, label %.lr.ph

.loopexit:                                        ; preds = %70, %31, %58, %9
  ret void
}